; Function Attrs: mustprogress uwtable
define dso_local noundef nonnull align 8 dereferenceable(8) ptr @_ZN4JsonlsERSoRKNS_5ValueE(ptr noundef nonnull returned align 8 dereferenceable(8) %0, ptr noundef nonnull align 8 dereferenceable(40) %1) local_unnamed_addr #0 personality ptr @__gxx_personality_v0 {
  %3 = alloca %"class.Json::StreamWriterBuilder", align 8
  store ptr getelementptr inbounds ({ [5 x ptr] }, ptr @_ZTVN4Json19StreamWriterBuilderE, i64 0, i32 0, i64 2), ptr %3, align 8
  %4 = getelementptr inbounds i8, ptr %3, i64 8
  call void @_ZN4Json5ValueC1ENS_9ValueTypeE(ptr noundef nonnull align 8 dereferenceable(40) %4, i32 noundef 0)
  invoke void @_ZN4Json19StreamWriterBuilder11setDefaultsEPNS_5ValueE(ptr noundef nonnull %4)
          to label %_ZN4Json19StreamWriterBuilderC2Ev.exit unwind label %5

common.resume:                                    ; preds = %22, %5
  %common.resume.op = phi { ptr, i32 } [ %6, %5 ], [ %.pn, %22 ]
  call void @_ZN4Json5ValueD1Ev(ptr noundef nonnull align 8 dereferenceable(40) %4) #19
  resume { ptr, i32 } %common.resume.op

5:                                                ; preds = %2
  %6 = landingpad { ptr, i32 }
          cleanup
  br label %common.resume

_ZN4Json19StreamWriterBuilderC2Ev.exit:           ; preds = %2
  %7 = invoke noundef ptr @_ZNK4Json19StreamWriterBuilder15newStreamWriterEv(ptr noundef nonnull align 8 dereferenceable(48) %3)
          to label %8 unwind label %16

8:                                                ; preds = %_ZN4Json19StreamWriterBuilderC2Ev.exit
  %9 = load ptr, ptr %7, align 8
  %10 = getelementptr inbounds i8, ptr %9, i64 16
  %11 = load ptr, ptr %10, align 8
  %12 = invoke noundef i32 %11(ptr noundef nonnull align 8 dereferenceable(16) %7, ptr noundef nonnull align 8 dereferenceable(40) %1, ptr noundef nonnull %0)
          to label %_ZNSt10unique_ptrIN4Json12StreamWriterESt14default_deleteIS1_EED2Ev.exit unwind label %_ZNSt10unique_ptrIN4Json12StreamWriterESt14default_deleteIS1_EED2Ev.exit8

_ZNSt10unique_ptrIN4Json12StreamWriterESt14default_deleteIS1_EED2Ev.exit: ; preds = %8
  %13 = load ptr, ptr %7, align 8
  %14 = getelementptr inbounds i8, ptr %13, i64 8
  %15 = load ptr, ptr %14, align 8
  call void %15(ptr noundef nonnull align 8 dereferenceable(16) %7) #19
  store ptr getelementptr inbounds ({ [5 x ptr] }, ptr @_ZTVN4Json19StreamWriterBuilderE, i64 0, i32 0, i64 2), ptr %3, align 8
  call void @_ZN4Json5ValueD1Ev(ptr noundef nonnull align 8 dereferenceable(40) %4) #19
  ret ptr %0

16:                                               ; preds = %_ZN4Json19StreamWriterBuilderC2Ev.exit
  %17 = landingpad { ptr, i32 }
          cleanup
  br label %22

_ZNSt10unique_ptrIN4Json12StreamWriterESt14default_deleteIS1_EED2Ev.exit8: ; preds = %8
  %18 = landingpad { ptr, i32 }
          cleanup
  %19 = load ptr, ptr %7, align 8
  %20 = getelementptr inbounds i8, ptr %19, i64 8
  %21 = load ptr, ptr %20, align 8
  call void %21(ptr noundef nonnull align 8 dereferenceable(16) %7) #19
  br label %22

22:                                               ; preds = %_ZNSt10unique_ptrIN4Json12StreamWriterESt14default_deleteIS1_EED2Ev.exit8, %16
  %.pn = phi { ptr, i32 } [ %18, %_ZNSt10unique_ptrIN4Json12StreamWriterESt14default_deleteIS1_EED2Ev.exit8 ], [ %17, %16 ]
  store ptr getelementptr inbounds ({ [5 x ptr] }, ptr @_ZTVN4Json19StreamWriterBuilderE, i64 0, i32 0, i64 2), ptr %3, align 8
  br label %common.resume
}